target datalayout = "e-m:e-p270:32:32-p271:32:32-p272:64:64-i64:64-i128:128-f80:128-n8:16:32:64-S128"
target triple = "x86_64-pc-linux-gnu"

%"struct.absl::container_internal::internal_compressed_tuple::Storage" = type { i64 }
%"class.absl::container_internal::CompressedTuple.312" = type { %"struct.absl::container_internal::internal_compressed_tuple::CompressedTupleImpl.313" }
%"struct.absl::container_internal::internal_compressed_tuple::CompressedTupleImpl.313" = type { %"struct.absl::container_internal::internal_compressed_tuple::Storage" }
%"class.(anonymous namespace)::ConstructionTester" = type <{ ptr, i32, [4 x i8] }>
%"class.absl::FixedArray.335" = type { %"class.absl::FixedArray<(anonymous namespace)::ConstructionTester, 64>::Storage" }
%"class.absl::FixedArray<(anonymous namespace)::ConstructionTester, 64>::Storage" = type { %"class.absl::FixedArray<(anonymous namespace)::ConstructionTester, 64>::NonEmptyInlinedStorage", %"class.absl::container_internal::CompressedTuple.312", ptr }
%"class.absl::FixedArray<(anonymous namespace)::ConstructionTester, 64>::NonEmptyInlinedStorage" = type { [1024 x i8] }

@_ZN12_GLOBAL__N_118ConstructionTester12destructionsE = internal global i32 0, align 4

; Function Attrs: mustprogress nounwind uwtable
define linkonce_odr dso_local noundef nonnull align 8 dereferenceable(8) ptr @_ZNKR4absl18container_internal25internal_compressed_tuple7StorageImLm0ELb0EE3getEv(ptr noundef nonnull align 8 dereferenceable(8) %0) #5 comdat align 2 {
  %2 = alloca ptr, align 8
  store ptr %0, ptr %2, align 8, !tbaa !165
  %3 = load ptr, ptr %2, align 8
  %4 = getelementptr inbounds nuw %"struct.absl::container_internal::internal_compressed_tuple::Storage", ptr %3, i32 0, i32 0
  ret ptr %4
}

; Function Attrs: mustprogress nounwind uwtable
define internal void @_ZNSt15__new_allocatorIN12_GLOBAL__N_118ConstructionTesterEE10deallocateEPS1_m(ptr noundef nonnull align 1 dereferenceable(1) %0, ptr noundef %1, i64 noundef %2) #5 align 2 {
  %4 = alloca ptr, align 8
  %5 = alloca ptr, align 8
  %6 = alloca i64, align 8
  store ptr %0, ptr %4, align 8, !tbaa !1348
  store ptr %1, ptr %5, align 8, !tbaa !1320
  store i64 %2, ptr %6, align 8, !tbaa !110
  %7 = load ptr, ptr %5, align 8, !tbaa !1320
  %8 = load i64, ptr %6, align 8, !tbaa !110
  %9 = mul i64 %8, 16
  call void @_ZdlPvm(ptr noundef %7, i64 noundef %9) #23
  ret void
}

; Function Attrs: mustprogress nounwind uwtable
define internal void @_ZN12_GLOBAL__N_118ConstructionTesterD2Ev(ptr noundef nonnull align 8 dereferenceable(12) %0) unnamed_addr #5 align 2 {
  %2 = alloca ptr, align 8
  store ptr %0, ptr %2, align 8, !tbaa !1320
  %3 = load ptr, ptr %2, align 8
  %4 = getelementptr inbounds nuw %"class.(anonymous namespace)::ConstructionTester", ptr %3, i32 0, i32 0
  store ptr null, ptr %4, align 8, !tbaa !1377
  %5 = load i32, ptr @_ZN12_GLOBAL__N_118ConstructionTester12destructionsE, align 4, !tbaa !17
  %6 = add nsw i32 %5, 1
  store i32 %6, ptr @_ZN12_GLOBAL__N_118ConstructionTester12destructionsE, align 4, !tbaa !17
  ret void
}

; Function Attrs: mustprogress nounwind uwtable
define internal noundef nonnull align 1 dereferenceable(1) ptr @_ZNR4absl18container_internal25internal_compressed_tuple7StorageISaIN12_GLOBAL__N_118ConstructionTesterEELm1ELb1EE3getEv(ptr noundef nonnull align 1 dereferenceable(1) %0) #5 align 2 {
  %2 = alloca ptr, align 8
  store ptr %0, ptr %2, align 8, !tbaa !1373
  %3 = load ptr, ptr %2, align 8
  ret ptr %3
}

; Function Attrs: mustprogress nounwind uwtable
define internal noundef nonnull align 8 dereferenceable(8) ptr @_ZNKR4absl18container_internal15CompressedTupleIJmSaIN12_GLOBAL__N_118ConstructionTesterEEEE3getILi0EEERKNS0_25internal_compressed_tuple4ElemIS5_XT_EE4typeEv(ptr noundef nonnull align 8 dereferenceable(8) %0) #5 align 2 {
  %2 = alloca ptr, align 8
  store ptr %0, ptr %2, align 8, !tbaa !1369
  %3 = load ptr, ptr %2, align 8
  %4 = call noundef nonnull align 8 dereferenceable(8) ptr @_ZNKR4absl18container_internal25internal_compressed_tuple7StorageImLm0ELb0EE3getEv(ptr noundef nonnull align 8 dereferenceable(8) %3)
  ret ptr %4
}

; Function Attrs: mustprogress nounwind uwtable
define internal void @_ZNSt15__new_allocatorIN12_GLOBAL__N_118ConstructionTesterEED2Ev(ptr noundef nonnull align 1 dereferenceable(1) %0) unnamed_addr #5 align 2 {
  %2 = alloca ptr, align 8
  store ptr %0, ptr %2, align 8, !tbaa !1348
  ret void
}

; Function Attrs: mustprogress uwtable
define internal void @_ZNSt16allocator_traitsISaIN12_GLOBAL__N_118ConstructionTesterEEE10deallocateERS2_PS1_m(ptr noundef nonnull align 1 dereferenceable(1) %0, ptr noundef %1, i64 noundef %2) #6 align 2 {
  %4 = alloca ptr, align 8
  %5 = alloca ptr, align 8
  %6 = alloca i64, align 8
  store ptr %0, ptr %4, align 8, !tbaa !1344
  store ptr %1, ptr %5, align 8, !tbaa !1320
  store i64 %2, ptr %6, align 8, !tbaa !110
  %7 = load ptr, ptr %4, align 8, !tbaa !1344
  %8 = load ptr, ptr %5, align 8, !tbaa !1320
  %9 = load i64, ptr %6, align 8, !tbaa !110
  call void @_ZNSt15__new_allocatorIN12_GLOBAL__N_118ConstructionTesterEE10deallocateEPS1_m(ptr noundef nonnull align 1 dereferenceable(1) %7, ptr noundef %8, i64 noundef %9)
  ret void
}

; Function Attrs: mustprogress nounwind uwtable
define internal noundef ptr @_ZN4absl10FixedArrayIN12_GLOBAL__N_118ConstructionTesterELm64ESaIS2_EE11AsValueTypeEPS2_(ptr noundef %0) #5 align 2 {
  %2 = alloca ptr, align 8
  store ptr %0, ptr %2, align 8, !tbaa !1320
  %3 = load ptr, ptr %2, align 8, !tbaa !1320
  ret ptr %3
}

; Function Attrs: mustprogress nounwind uwtable
define internal void @_ZN4absl10FixedArrayIN12_GLOBAL__N_118ConstructionTesterELm64ESaIS2_EE22NonEmptyInlinedStorage16AnnotateDestructEm(ptr noundef nonnull align 8 dereferenceable(1024) %0, i64 noundef %1) #5 align 2 {
  %3 = alloca ptr, align 8
  %4 = alloca i64, align 8
  store ptr %0, ptr %3, align 8, !tbaa !1437
  store i64 %1, ptr %4, align 8, !tbaa !110
  ret void
}

; Function Attrs: mustprogress nounwind uwtable
define internal noundef zeroext i1 @_ZN4absl10FixedArrayIN12_GLOBAL__N_118ConstructionTesterELm64ESaIS2_EE7Storage19UsingInlinedStorageEm(i64 noundef %0) #5 align 2 {
  %2 = alloca i64, align 8
  store i64 %0, ptr %2, align 8, !tbaa !110
  %3 = load i64, ptr %2, align 8, !tbaa !110
  %4 = icmp ule i64 %3, 64
  ret i1 %4
}

; Function Attrs: mustprogress nounwind uwtable
define internal void @_ZNSt15__new_allocatorIN12_GLOBAL__N_118ConstructionTesterEE7destroyIS1_EEvPT_(ptr noundef nonnull align 1 dereferenceable(1) %0, ptr noundef %1) #5 align 2 {
  %3 = alloca ptr, align 8
  %4 = alloca ptr, align 8
  store ptr %0, ptr %3, align 8, !tbaa !1348
  store ptr %1, ptr %4, align 8, !tbaa !1320
  %5 = load ptr, ptr %4, align 8, !tbaa !1320
  call void @_ZN12_GLOBAL__N_118ConstructionTesterD2Ev(ptr noundef nonnull align 8 dereferenceable(12) %5) #3
  ret void
}

; Function Attrs: mustprogress uwtable
define internal noundef nonnull align 1 dereferenceable(1) ptr @_ZNR4absl18container_internal15CompressedTupleIJmSaIN12_GLOBAL__N_118ConstructionTesterEEEE3getILi1EEERNS0_25internal_compressed_tuple4ElemIS5_XT_EE4typeEv(ptr noundef nonnull align 8 dereferenceable(8) %0) #6 align 2 {
  %2 = alloca ptr, align 8
  store ptr %0, ptr %2, align 8, !tbaa !1369
  %3 = load ptr, ptr %2, align 8
  %4 = call noundef nonnull align 1 dereferenceable(1) ptr @_ZNR4absl18container_internal25internal_compressed_tuple7StorageISaIN12_GLOBAL__N_118ConstructionTesterEELm1ELb1EE3getEv(ptr noundef nonnull align 1 dereferenceable(1) %3)
  ret ptr %4
}

; Function Attrs: mustprogress nounwind uwtable
define internal noundef i64 @_ZNK4absl10FixedArrayIN12_GLOBAL__N_118ConstructionTesterELm64ESaIS2_EE7Storage4sizeEv(ptr noundef nonnull align 8 dereferenceable(1040) %0) #5 align 2 {
  %2 = alloca ptr, align 8
  store ptr %0, ptr %2, align 8, !tbaa !1432
  %3 = load ptr, ptr %2, align 8
  %4 = getelementptr inbounds nuw %"class.absl::FixedArray<(anonymous namespace)::ConstructionTester, 64>::Storage", ptr %3, i32 0, i32 1
  %5 = call noundef nonnull align 8 dereferenceable(8) ptr @_ZNKR4absl18container_internal15CompressedTupleIJmSaIN12_GLOBAL__N_118ConstructionTesterEEEE3getILi0EEERKNS0_25internal_compressed_tuple4ElemIS5_XT_EE4typeEv(ptr noundef nonnull align 8 dereferenceable(8) %4)
  %6 = load i64, ptr %5, align 8, !tbaa !110
  ret i64 %6
}

; Function Attrs: noinline noreturn nounwind uwtable
define linkonce_odr hidden void @__clang_call_terminate(ptr noundef %0) #11 comdat {
  %2 = call ptr @__cxa_begin_catch(ptr %0) #3
  call void @_ZSt9terminatev() #25
  unreachable
}

; Function Attrs: mustprogress nounwind uwtable
define internal void @_ZN4absl10FixedArrayIN12_GLOBAL__N_118ConstructionTesterELm64ESaIS2_EE7StorageD2Ev(ptr noundef nonnull align 8 dereferenceable(1040) %0) unnamed_addr #5 align 2 personality ptr @__gxx_personality_v0 {
  %2 = alloca ptr, align 8
  store ptr %0, ptr %2, align 8, !tbaa !1432
  %3 = load ptr, ptr %2, align 8
  %4 = call noundef i64 @_ZNK4absl10FixedArrayIN12_GLOBAL__N_118ConstructionTesterELm64ESaIS2_EE7Storage4sizeEv(ptr noundef nonnull align 8 dereferenceable(1040) %3)
  %5 = call noundef zeroext i1 @_ZN4absl10FixedArrayIN12_GLOBAL__N_118ConstructionTesterELm64ESaIS2_EE7Storage19UsingInlinedStorageEm(i64 noundef %4)
  br i1 %5, label %6, label %9

6:                                                ; preds = %1
  %7 = call noundef i64 @_ZNK4absl10FixedArrayIN12_GLOBAL__N_118ConstructionTesterELm64ESaIS2_EE7Storage4sizeEv(ptr noundef nonnull align 8 dereferenceable(1040) %3)
  invoke void @_ZN4absl10FixedArrayIN12_GLOBAL__N_118ConstructionTesterELm64ESaIS2_EE22NonEmptyInlinedStorage16AnnotateDestructEm(ptr noundef nonnull align 8 dereferenceable(1024) %3, i64 noundef %7)
          to label %8 unwind label %19

8:                                                ; preds = %6
  br label %17

9:                                                ; preds = %1
  %10 = invoke noundef nonnull align 1 dereferenceable(1) ptr @_ZN4absl10FixedArrayIN12_GLOBAL__N_118ConstructionTesterELm64ESaIS2_EE7Storage5allocEv(ptr noundef nonnull align 8 dereferenceable(1040) %3)
          to label %11 unwind label %19

11:                                               ; preds = %9
  %12 = call noundef ptr @_ZNK4absl10FixedArrayIN12_GLOBAL__N_118ConstructionTesterELm64ESaIS2_EE7Storage5beginEv(ptr noundef nonnull align 8 dereferenceable(1040) %3)
  %13 = invoke noundef ptr @_ZN4absl10FixedArrayIN12_GLOBAL__N_118ConstructionTesterELm64ESaIS2_EE11AsValueTypeEPS2_(ptr noundef %12)
          to label %14 unwind label %19

14:                                               ; preds = %11
  %15 = call noundef i64 @_ZNK4absl10FixedArrayIN12_GLOBAL__N_118ConstructionTesterELm64ESaIS2_EE7Storage4sizeEv(ptr noundef nonnull align 8 dereferenceable(1040) %3)
  invoke void @_ZNSt16allocator_traitsISaIN12_GLOBAL__N_118ConstructionTesterEEE10deallocateERS2_PS1_m(ptr noundef nonnull align 1 dereferenceable(1) %10, ptr noundef %13, i64 noundef %15)
          to label %16 unwind label %19

16:                                               ; preds = %14
  br label %17

17:                                               ; preds = %16, %8
  %18 = getelementptr inbounds nuw %"class.absl::FixedArray<(anonymous namespace)::ConstructionTester, 64>::Storage", ptr %3, i32 0, i32 1
  call void @_ZNSt15__new_allocatorIN12_GLOBAL__N_118ConstructionTesterEED2Ev(ptr noundef nonnull align 8 dereferenceable(8) %18) #3
  ret void

19:                                               ; preds = %14, %11, %9, %6
  %20 = landingpad { ptr, i32 }
          catch ptr null
  %21 = extractvalue { ptr, i32 } %20, 0
  call void @__clang_call_terminate(ptr %21) #25
  unreachable
}

; Function Attrs: mustprogress nounwind uwtable
define internal void @_ZNSt16allocator_traitsISaIN12_GLOBAL__N_118ConstructionTesterEEE7destroyIS1_EEvRS2_PT_(ptr noundef nonnull align 1 dereferenceable(1) %0, ptr noundef %1) #5 align 2 {
  %3 = alloca ptr, align 8
  %4 = alloca ptr, align 8
  store ptr %0, ptr %3, align 8, !tbaa !1344
  store ptr %1, ptr %4, align 8, !tbaa !1320
  %5 = load ptr, ptr %3, align 8, !tbaa !1344
  %6 = load ptr, ptr %4, align 8, !tbaa !1320
  call void @_ZNSt15__new_allocatorIN12_GLOBAL__N_118ConstructionTesterEE7destroyIS1_EEvPT_(ptr noundef nonnull align 1 dereferenceable(1) %5, ptr noundef %6) #3
  ret void
}

; Function Attrs: mustprogress uwtable
define internal noundef nonnull align 1 dereferenceable(1) ptr @_ZN4absl10FixedArrayIN12_GLOBAL__N_118ConstructionTesterELm64ESaIS2_EE7Storage5allocEv(ptr noundef nonnull align 8 dereferenceable(1040) %0) #6 align 2 {
  %2 = alloca ptr, align 8
  store ptr %0, ptr %2, align 8, !tbaa !1432
  %3 = load ptr, ptr %2, align 8
  %4 = getelementptr inbounds nuw %"class.absl::FixedArray<(anonymous namespace)::ConstructionTester, 64>::Storage", ptr %3, i32 0, i32 1
  %5 = call noundef nonnull align 1 dereferenceable(1) ptr @_ZNR4absl18container_internal15CompressedTupleIJmSaIN12_GLOBAL__N_118ConstructionTesterEEEE3getILi1EEERNS0_25internal_compressed_tuple4ElemIS5_XT_EE4typeEv(ptr noundef nonnull align 8 dereferenceable(8) %4)
  ret ptr %5
}

; Function Attrs: mustprogress nounwind uwtable
define internal noundef ptr @_ZNK4absl10FixedArrayIN12_GLOBAL__N_118ConstructionTesterELm64ESaIS2_EE7Storage3endEv(ptr noundef nonnull align 8 dereferenceable(1040) %0) #5 align 2 {
  %2 = alloca ptr, align 8
  store ptr %0, ptr %2, align 8, !tbaa !1432
  %3 = load ptr, ptr %2, align 8
  %4 = call noundef ptr @_ZNK4absl10FixedArrayIN12_GLOBAL__N_118ConstructionTesterELm64ESaIS2_EE7Storage5beginEv(ptr noundef nonnull align 8 dereferenceable(1040) %3)
  %5 = call noundef i64 @_ZNK4absl10FixedArrayIN12_GLOBAL__N_118ConstructionTesterELm64ESaIS2_EE7Storage4sizeEv(ptr noundef nonnull align 8 dereferenceable(1040) %3)
  %6 = getelementptr inbounds nuw %"class.(anonymous namespace)::ConstructionTester", ptr %4, i64 %5
  ret ptr %6
}

; Function Attrs: mustprogress nounwind uwtable
define internal noundef ptr @_ZNK4absl10FixedArrayIN12_GLOBAL__N_118ConstructionTesterELm64ESaIS2_EE7Storage5beginEv(ptr noundef nonnull align 8 dereferenceable(1040) %0) #5 align 2 {
  %2 = alloca ptr, align 8
  store ptr %0, ptr %2, align 8, !tbaa !1432
  %3 = load ptr, ptr %2, align 8
  %4 = getelementptr inbounds nuw %"class.absl::FixedArray<(anonymous namespace)::ConstructionTester, 64>::Storage", ptr %3, i32 0, i32 2
  %5 = load ptr, ptr %4, align 8, !tbaa !1434
  ret ptr %5
}

; Function Attrs: mustprogress nounwind uwtable
define internal void @_ZN4absl10FixedArrayIN12_GLOBAL__N_118ConstructionTesterELm64ESaIS2_EED2Ev(ptr noundef nonnull align 8 dereferenceable(1040) %0) unnamed_addr #5 align 2 personality ptr @__gxx_personality_v0 {
  %2 = alloca ptr, align 8
  %3 = alloca ptr, align 8
  store ptr %0, ptr %2, align 8, !tbaa !1429
  %4 = load ptr, ptr %2, align 8
  call void @llvm.lifetime.start.p0(i64 8, ptr %3) #3
  %5 = getelementptr inbounds nuw %"class.absl::FixedArray.335", ptr %4, i32 0, i32 0
  %6 = call noundef ptr @_ZNK4absl10FixedArrayIN12_GLOBAL__N_118ConstructionTesterELm64ESaIS2_EE7Storage5beginEv(ptr noundef nonnull align 8 dereferenceable(1040) %5)
  store ptr %6, ptr %3, align 8, !tbaa !1320
  br label %7

7:                                                ; preds = %18, %1
  %8 = load ptr, ptr %3, align 8, !tbaa !1320
  %9 = getelementptr inbounds nuw %"class.absl::FixedArray.335", ptr %4, i32 0, i32 0
  %10 = call noundef ptr @_ZNK4absl10FixedArrayIN12_GLOBAL__N_118ConstructionTesterELm64ESaIS2_EE7Storage3endEv(ptr noundef nonnull align 8 dereferenceable(1040) %9)
  %11 = icmp ne ptr %8, %10
  br i1 %11, label %13, label %12

12:                                               ; preds = %7
  call void @llvm.lifetime.end.p0(i64 8, ptr %3) #3
  br label %21

13:                                               ; preds = %7
  %14 = getelementptr inbounds nuw %"class.absl::FixedArray.335", ptr %4, i32 0, i32 0
  %15 = invoke noundef nonnull align 1 dereferenceable(1) ptr @_ZN4absl10FixedArrayIN12_GLOBAL__N_118ConstructionTesterELm64ESaIS2_EE7Storage5allocEv(ptr noundef nonnull align 8 dereferenceable(1040) %14)
          to label %16 unwind label %23

16:                                               ; preds = %13
  %17 = load ptr, ptr %3, align 8, !tbaa !1320
  call void @_ZNSt16allocator_traitsISaIN12_GLOBAL__N_118ConstructionTesterEEE7destroyIS1_EEvRS2_PT_(ptr noundef nonnull align 1 dereferenceable(1) %15, ptr noundef %17) #3
  br label %18

18:                                               ; preds = %16
  %19 = load ptr, ptr %3, align 8, !tbaa !1320
  %20 = getelementptr inbounds nuw %"class.(anonymous namespace)::ConstructionTester", ptr %19, i32 1
  store ptr %20, ptr %3, align 8, !tbaa !1320
  br label %7, !llvm.loop !1431

21:                                               ; preds = %12
  %22 = getelementptr inbounds nuw %"class.absl::FixedArray.335", ptr %4, i32 0, i32 0
  call void @_ZN4absl10FixedArrayIN12_GLOBAL__N_118ConstructionTesterELm64ESaIS2_EE7StorageD2Ev(ptr noundef nonnull align 8 dereferenceable(1040) %22) #3
  ret void

23:                                               ; preds = %13
  %24 = landingpad { ptr, i32 }
          catch ptr null
  %25 = extractvalue { ptr, i32 } %24, 0
  call void @__clang_call_terminate(ptr %25) #25
  unreachable
}